target datalayout = "e-m:e-p270:32:32-p271:32:32-p272:64:64-i64:64-i128:128-f80:128-n8:16:32:64-S128"
target triple = "x86_64-pc-linux-gnu"

%"class.pxrInternal_v0_24__pxrReserved__::Usd_PrimDataHandle" = type { %"class.pxrInternal_v0_24__pxrReserved__::TfDelegatedCountPtr" }
%"class.pxrInternal_v0_24__pxrReserved__::TfDelegatedCountPtr" = type { ptr }
%"class.pxrInternal_v0_24__pxrReserved__::SdfPath" = type { %"struct.pxrInternal_v0_24__pxrReserved__::Sdf_PathNodeHandleImpl", %"struct.pxrInternal_v0_24__pxrReserved__::Sdf_PathNodeHandleImpl.0" }
%"struct.pxrInternal_v0_24__pxrReserved__::Sdf_PathNodeHandleImpl" = type { %"struct.pxrInternal_v0_24__pxrReserved__::Sdf_Pool<pxrInternal_v0_24__pxrReserved__::Sdf_PathPrimTag, 24, 8>::Handle" }
%"struct.pxrInternal_v0_24__pxrReserved__::Sdf_Pool<pxrInternal_v0_24__pxrReserved__::Sdf_PathPrimTag, 24, 8>::Handle" = type { i32 }
%"struct.pxrInternal_v0_24__pxrReserved__::Sdf_PathNodeHandleImpl.0" = type { %"struct.pxrInternal_v0_24__pxrReserved__::Sdf_Pool<pxrInternal_v0_24__pxrReserved__::Sdf_PathPropTag, 24, 8>::Handle" }
%"struct.pxrInternal_v0_24__pxrReserved__::Sdf_Pool<pxrInternal_v0_24__pxrReserved__::Sdf_PathPropTag, 24, 8>::Handle" = type { i32 }
%"class.pxrInternal_v0_24__pxrReserved__::TfToken" = type { %"class.pxrInternal_v0_24__pxrReserved__::TfPointerAndBits" }
%"class.pxrInternal_v0_24__pxrReserved__::TfPointerAndBits" = type { ptr }
%"class.pxrInternal_v0_24__pxrReserved__::UsdPrim" = type { %"class.pxrInternal_v0_24__pxrReserved__::UsdObject" }
%"class.pxrInternal_v0_24__pxrReserved__::UsdObject" = type { i32, %"class.pxrInternal_v0_24__pxrReserved__::Usd_PrimDataHandle", %"class.pxrInternal_v0_24__pxrReserved__::SdfPath", %"class.pxrInternal_v0_24__pxrReserved__::TfToken" }

; Function Attrs: mustprogress uwtable
define internal void @_ZN32pxrInternal_v0_24__pxrReserved__L30_RecurseForInheritablePrimvarsERKNS_7UsdPrimERKNS_7TfTokenEPSt6vectorINS_14UsdGeomPrimvarESaIS7_EEb(ptr noundef nonnull align 8 dereferenceable(32) %0, ptr noundef nonnull align 8 dereferenceable(8) %1, ptr noundef %2, i1 noundef zeroext %3) #0 personality ptr @__gxx_personality_v0 {
  %5 = alloca ptr, align 8
  %6 = alloca ptr, align 8
  %7 = alloca ptr, align 8
  %8 = alloca i8, align 1
  %9 = alloca %"class.pxrInternal_v0_24__pxrReserved__::UsdPrim", align 8
  %10 = alloca ptr, align 8
  %11 = alloca i32, align 4
  store ptr %0, ptr %5, align 8
  store ptr %1, ptr %6, align 8
  store ptr %2, ptr %7, align 8
  %12 = zext i1 %3 to i8
  store i8 %12, ptr %8, align 1
  %13 = load ptr, ptr %5, align 8
  %14 = call noundef zeroext i1 @_ZNK32pxrInternal_v0_24__pxrReserved__7UsdPrim12IsPseudoRootEv(ptr noundef nonnull align 8 dereferenceable(32) %13)
  br i1 %14, label %15, label %16

15:                                               ; preds = %4
  br label %27

16:                                               ; preds = %4
  %17 = load ptr, ptr %5, align 8
  call void @_ZNK32pxrInternal_v0_24__pxrReserved__7UsdPrim9GetParentEv(ptr dead_on_unwind writable sret(%"class.pxrInternal_v0_24__pxrReserved__::UsdPrim") align 8 %9, ptr noundef nonnull align 8 dereferenceable(32) %17)
  %18 = load ptr, ptr %6, align 8
  %19 = load ptr, ptr %7, align 8
  invoke void @_ZN32pxrInternal_v0_24__pxrReserved__L30_RecurseForInheritablePrimvarsERKNS_7UsdPrimERKNS_7TfTokenEPSt6vectorINS_14UsdGeomPrimvarESaIS7_EEb(ptr noundef nonnull align 8 dereferenceable(32) %9, ptr noundef nonnull align 8 dereferenceable(8) %18, ptr noundef %19, i1 noundef zeroext false)
          to label %20 unwind label %28

20:                                               ; preds = %16
  call void @_ZN32pxrInternal_v0_24__pxrReserved__7UsdPrimD2Ev(ptr noundef nonnull align 8 dereferenceable(32) %9) #6
  %21 = load ptr, ptr %5, align 8
  %22 = load ptr, ptr %6, align 8
  %23 = load ptr, ptr %7, align 8
  %24 = load ptr, ptr %7, align 8
  %25 = load i8, ptr %8, align 1
  %26 = trunc i8 %25 to i1
  call void @_ZN32pxrInternal_v0_24__pxrReserved__L27_AddPrimToInheritedPrimvarsERKNS_7UsdPrimERKNS_7TfTokenEPKSt6vectorINS_14UsdGeomPrimvarESaIS7_EEPS9_b(ptr noundef nonnull align 8 dereferenceable(32) %21, ptr noundef nonnull align 8 dereferenceable(8) %22, ptr noundef %23, ptr noundef %24, i1 noundef zeroext %26)
  br label %27

27:                                               ; preds = %20, %15
  ret void

28:                                               ; preds = %16
  %29 = landingpad { ptr, i32 }
          cleanup
  %30 = extractvalue { ptr, i32 } %29, 0
  store ptr %30, ptr %10, align 8
  %31 = extractvalue { ptr, i32 } %29, 1
  store i32 %31, ptr %11, align 4
  call void @_ZN32pxrInternal_v0_24__pxrReserved__7UsdPrimD2Ev(ptr noundef nonnull align 8 dereferenceable(32) %9) #6
  br label %32

32:                                               ; preds = %28
  %33 = load ptr, ptr %10, align 8
  %34 = load i32, ptr %11, align 4
  %35 = insertvalue { ptr, i32 } poison, ptr %33, 0
  %36 = insertvalue { ptr, i32 } %35, i32 %34, 1
  resume { ptr, i32 } %36
}